(lp0
S'mouse mouse'
p1
aS'car cat'
p2
aS'apple mouse'
p3
aS'mouse apple'
p4
aS'mouse cat'
p5
aS'apple car'
p6
aS'apple apple'
p7
aS'tree car'
p8
aS'tree tree'
p9
aS'mouse car'
p10
aS'cat apple'
p11
aS'cat car'
p12
aS'tree mouse'
p13
aS'tree apple'
p14
aS'cat tree'
p15
aS'car apple'
p16
a.